; Function Attrs: mustprogress uwtable
define internal void @"_ZNSt17_Function_handlerIFvRN19OpenColorIO_v2_5dev10OpRcPtrVecEEZNS0_4ACES11RegisterAllERNS0_28BuiltinTransformRegistryImplEE4$_28E9_M_invokeERKSt9_Any_dataS2_"(ptr noundef nonnull readonly align 8 captures(none) dereferenceable(16) %0, ptr noundef nonnull align 8 dereferenceable(144) %1) #3 align 2 {
  %.val = load ptr, ptr %0, align 8, !tbaa !90
  %3 = getelementptr inbounds nuw i8, ptr %.val, i64 64
  %4 = load float, ptr %3, align 8, !tbaa !93
  %5 = getelementptr inbounds nuw i8, ptr %.val, i64 72
  %6 = getelementptr inbounds nuw i8, ptr %.val, i64 136
  %7 = getelementptr inbounds nuw i8, ptr %.val, i64 200
  %8 = load float, ptr %7, align 8, !tbaa !95
  %9 = getelementptr inbounds nuw i8, ptr %.val, i64 204
  %10 = load i8, ptr %9, align 4, !tbaa !96, !range !97, !noundef !98
  %11 = trunc nuw i8 %10 to i1
  tail call void @_ZN19OpenColorIO_v2_5dev12ACES2_OUTPUT25Generate_output_transformERNS_10OpRcPtrVecEfRKNS_9PrimariesES5_fb(ptr noundef nonnull align 8 dereferenceable(144) %1, float noundef %4, ptr noundef nonnull align 8 dereferenceable(64) %5, ptr noundef nonnull align 8 dereferenceable(64) %6, float noundef %8, i1 noundef zeroext %11)
  ret void
}